target datalayout = "e-m:e-p270:32:32-p271:32:32-p272:64:64-i64:64-i128:128-f80:128-n8:16:32:64-S128"
target triple = "x86_64-pc-linux-gnu"

%struct.PgStat_EntryRef = type { ptr, ptr, i32, ptr, %struct.dlist_node }
%struct.dlist_node = type { ptr, ptr }
%struct.PgStat_StatDBEntry = type { i64, i64, i64, i64, i64, i64, i64, i64, i64, i64, i64, i64, i64, i64, i64, i64, i64, i64, i64, i64, i64, i64, i64, i64, i64, i64, i64, i64, i64, i64, i64, i64, i64 }

@pgstat_track_counts = external global i8, align 1
@MyDatabaseId = external global i32, align 4

; Function Attrs: nounwind uwtable
define dso_local ptr @pgstat_prep_database_pending(i32 noundef %0) #0 {
  %2 = alloca i32, align 4
  %3 = alloca ptr, align 8
  store i32 %0, ptr %2, align 4
  call void @llvm.lifetime.start.p0(i64 8, ptr %3) #4
  %4 = load i32, ptr %2, align 4
  %5 = call ptr @pgstat_prep_pending_entry(i32 noundef 1, i32 noundef %4, i64 noundef 0, ptr noundef null)
  store ptr %5, ptr %3, align 8
  %6 = load ptr, ptr %3, align 8
  %7 = getelementptr inbounds nuw %struct.PgStat_EntryRef, ptr %6, i32 0, i32 3
  %8 = load ptr, ptr %7, align 8
  call void @llvm.lifetime.end.p0(i64 8, ptr %3) #4
  ret ptr %8
}

; Function Attrs: nounwind uwtable
define dso_local void @pgstat_report_recovery_conflict(i32 noundef %0) #0 {
  %2 = alloca i32, align 4
  %3 = alloca ptr, align 8
  %4 = alloca i32, align 4
  store i32 %0, ptr %2, align 4
  call void @llvm.lifetime.start.p0(i64 8, ptr %3) #4
  %5 = load i8, ptr @pgstat_track_counts, align 1, !range !4, !noundef !5
  %6 = trunc i8 %5 to i1
  br i1 %6, label %8, label %7

7:                                                ; preds = %1
  store i32 1, ptr %4, align 4
  br label %43

8:                                                ; preds = %1
  %9 = load i32, ptr @MyDatabaseId, align 4
  %10 = call ptr @pgstat_prep_database_pending(i32 noundef %9)
  store ptr %10, ptr %3, align 8
  %11 = load i32, ptr %2, align 4
  switch i32 %11, label %42 [
    i32 7, label %42
    i32 8, label %12
    i32 9, label %17
    i32 10, label %22
    i32 12, label %27
    i32 11, label %32
    i32 13, label %37
  ]

12:                                               ; preds = %8
  %13 = load ptr, ptr %3, align 8
  %14 = getelementptr inbounds nuw %struct.PgStat_StatDBEntry, ptr %13, i32 0, i32 10
  %15 = load i64, ptr %14, align 8
  %16 = add i64 %15, 1
  store i64 %16, ptr %14, align 8
  br label %42

17:                                               ; preds = %8
  %18 = load ptr, ptr %3, align 8
  %19 = getelementptr inbounds nuw %struct.PgStat_StatDBEntry, ptr %18, i32 0, i32 11
  %20 = load i64, ptr %19, align 8
  %21 = add i64 %20, 1
  store i64 %21, ptr %19, align 8
  br label %42

22:                                               ; preds = %8
  %23 = load ptr, ptr %3, align 8
  %24 = getelementptr inbounds nuw %struct.PgStat_StatDBEntry, ptr %23, i32 0, i32 12
  %25 = load i64, ptr %24, align 8
  %26 = add i64 %25, 1
  store i64 %26, ptr %24, align 8
  br label %42

27:                                               ; preds = %8
  %28 = load ptr, ptr %3, align 8
  %29 = getelementptr inbounds nuw %struct.PgStat_StatDBEntry, ptr %28, i32 0, i32 14
  %30 = load i64, ptr %29, align 8
  %31 = add i64 %30, 1
  store i64 %31, ptr %29, align 8
  br label %42

32:                                               ; preds = %8
  %33 = load ptr, ptr %3, align 8
  %34 = getelementptr inbounds nuw %struct.PgStat_StatDBEntry, ptr %33, i32 0, i32 13
  %35 = load i64, ptr %34, align 8
  %36 = add i64 %35, 1
  store i64 %36, ptr %34, align 8
  br label %42

37:                                               ; preds = %8
  %38 = load ptr, ptr %3, align 8
  %39 = getelementptr inbounds nuw %struct.PgStat_StatDBEntry, ptr %38, i32 0, i32 15
  %40 = load i64, ptr %39, align 8
  %41 = add i64 %40, 1
  store i64 %41, ptr %39, align 8
  br label %42

42:                                               ; preds = %8, %37, %32, %27, %22, %17, %12, %8
  store i32 0, ptr %4, align 4
  br label %43

43:                                               ; preds = %42, %7
  call void @llvm.lifetime.end.p0(i64 8, ptr %3) #4
  %44 = load i32, ptr %4, align 4
  switch i32 %44, label %46 [
    i32 0, label %45
    i32 1, label %45
  ]

45:                                               ; preds = %43, %43
  ret void

46:                                               ; preds = %43
  unreachable
}