; Function Attrs: nounwind uwtable
define dso_local void @pgstat_report_recovery_conflict(i32 noundef %0) local_unnamed_addr #0 {
  %2 = load i8, ptr @pgstat_track_counts, align 1, !range !4, !noundef !5
  %3 = trunc nuw i8 %2 to i1
  br i1 %3, label %4, label %16

4:                                                ; preds = %1
  %5 = load i32, ptr @MyDatabaseId, align 4
  %6 = tail call ptr @pgstat_prep_pending_entry(i32 noundef 1, i32 noundef %5, i64 noundef 0, ptr noundef null) #6
  %switch.tableidx = add i32 %0, -8
  %7 = icmp ult i32 %switch.tableidx, 6
  br i1 %7, label %switch.lookup, label %16

switch.lookup:                                    ; preds = %4
  %8 = getelementptr inbounds nuw i8, ptr %6, i64 24
  %9 = load ptr, ptr %8, align 8
  %10 = shl nuw nsw i32 %switch.tableidx, 3
  %11 = zext nneg i32 %10 to i64
  %12 = getelementptr inbounds nuw i8, ptr %9, i64 %11
  %13 = getelementptr inbounds nuw i8, ptr %12, i64 80
  %14 = load i64, ptr %13, align 8
  %15 = add i64 %14, 1
  store i64 %15, ptr %13, align 8
  br label %16

16:                                               ; preds = %4, %switch.lookup, %1
  ret void
}